	.file	"container.c"
# GNU C17 (Ubuntu 9.3.0-17ubuntu1~20.04) version 9.3.0 (x86_64-linux-gnu)
#	compiled by GNU C version 9.3.0, GMP version 6.2.0, MPFR version 4.0.2, MPC version 1.1.0, isl version isl-0.22.1-GMP

# GGC heuristics: --param ggc-min-expand=100 --param ggc-min-heapsize=131072
# options passed:  -imultiarch x86_64-linux-gnu container.c -mtune=generic
# -march=x86-64 -auxbase-strip test.s -g -O2 -fverbose-asm
# -fasynchronous-unwind-tables -fstack-protector-strong -Wformat
# -Wformat-security -fstack-clash-protection -fcf-protection
# options enabled:  -fPIC -fPIE -faggressive-loop-optimizations
# -falign-functions -falign-jumps -falign-labels -falign-loops
# -fassume-phsa -fasynchronous-unwind-tables -fauto-inc-dec
# -fbranch-count-reg -fcaller-saves -fcode-hoisting
# -fcombine-stack-adjustments -fcommon -fcompare-elim -fcprop-registers
# -fcrossjumping -fcse-follow-jumps -fdefer-pop
# -fdelete-null-pointer-checks -fdevirtualize -fdevirtualize-speculatively
# -fdwarf2-cfi-asm -fearly-inlining -feliminate-unused-debug-types
# -fexpensive-optimizations -fforward-propagate -ffp-int-builtin-inexact
# -ffunction-cse -fgcse -fgcse-lm -fgnu-runtime -fgnu-unique
# -fguess-branch-probability -fhoist-adjacent-loads -fident -fif-conversion
# -fif-conversion2 -findirect-inlining -finline -finline-atomics
# -finline-functions-called-once -finline-small-functions -fipa-bit-cp
# -fipa-cp -fipa-icf -fipa-icf-functions -fipa-icf-variables -fipa-profile
# -fipa-pure-const -fipa-ra -fipa-reference -fipa-reference-addressable
# -fipa-sra -fipa-stack-alignment -fipa-vrp -fira-hoist-pressure
# -fira-share-save-slots -fira-share-spill-slots
# -fisolate-erroneous-paths-dereference -fivopts -fkeep-static-consts
# -fleading-underscore -flifetime-dse -flra-remat -flto-odr-type-merging
# -fmath-errno -fmerge-constants -fmerge-debug-strings
# -fmove-loop-invariants -fomit-frame-pointer -foptimize-sibling-calls
# -foptimize-strlen -fpartial-inlining -fpeephole -fpeephole2 -fplt
# -fprefetch-loop-arrays -free -freg-struct-return -freorder-blocks
# -freorder-blocks-and-partition -freorder-functions -frerun-cse-after-loop
# -fsched-critical-path-heuristic -fsched-dep-count-heuristic
# -fsched-group-heuristic -fsched-interblock -fsched-last-insn-heuristic
# -fsched-rank-heuristic -fsched-spec -fsched-spec-insn-heuristic
# -fsched-stalled-insns-dep -fschedule-fusion -fschedule-insns2
# -fsemantic-interposition -fshow-column -fshrink-wrap
# -fshrink-wrap-separate -fsigned-zeros -fsplit-ivs-in-unroller
# -fsplit-wide-types -fssa-backprop -fssa-phiopt -fstack-clash-protection
# -fstack-protector-strong -fstdarg-opt -fstore-merging -fstrict-aliasing
# -fstrict-volatile-bitfields -fsync-libcalls -fthread-jumps
# -ftoplevel-reorder -ftrapping-math -ftree-bit-ccp -ftree-builtin-call-dce
# -ftree-ccp -ftree-ch -ftree-coalesce-vars -ftree-copy-prop -ftree-cselim
# -ftree-dce -ftree-dominator-opts -ftree-dse -ftree-forwprop -ftree-fre
# -ftree-loop-if-convert -ftree-loop-im -ftree-loop-ivcanon
# -ftree-loop-optimize -ftree-parallelize-loops= -ftree-phiprop -ftree-pre
# -ftree-pta -ftree-reassoc -ftree-scev-cprop -ftree-sink -ftree-slsr
# -ftree-sra -ftree-switch-conversion -ftree-tail-merge -ftree-ter
# -ftree-vrp -funit-at-a-time -funwind-tables -fvar-tracking
# -fvar-tracking-assignments -fverbose-asm -fzero-initialized-in-bss
# -m128bit-long-double -m64 -m80387 -malign-stringops
# -mavx256-split-unaligned-load -mavx256-split-unaligned-store
# -mfancy-math-387 -mfp-ret-in-387 -mfxsr -mglibc -mieee-fp
# -mlong-double-80 -mmmx -mno-sse4 -mpush-args -mred-zone -msse -msse2
# -mstv -mtls-direct-seg-refs -mvzeroupper

	.text
.Ltext0:
	.p2align 4
	.globl	con_generate_random
	.type	con_generate_random, @function
con_generate_random:
.LVL0:
.LFB0:
	.file 1 "container.c"
	.loc 1 3 71 view -0
	.cfi_startproc
	.loc 1 3 71 is_stmt 0 view .LVU1
	endbr64	
	pushq	%r12	#
	.cfi_def_cfa_offset 16
	.cfi_offset 12, -16
	pushq	%rbp	#
	.cfi_def_cfa_offset 24
	.cfi_offset 6, -24
	pushq	%rbx	#
	.cfi_def_cfa_offset 32
	.cfi_offset 3, -32
	subq	$80, %rsp	#,
	.cfi_def_cfa_offset 112
# container.c:3: int con_generate_random(animal_st *animals_list, uint32_t list_length){
	.loc 1 3 71 view .LVU2
	movq	%fs:40, %rax	# MEM[(<address-space-1> long unsigned int *)40B], tmp107
	movq	%rax, 72(%rsp)	# tmp107, D.2042
	xorl	%eax, %eax	# tmp107
	.loc 1 5 5 is_stmt 1 view .LVU3
.LBB2:
	.loc 1 5 9 view .LVU4
.LVL1:
	.loc 1 5 20 view .LVU5
# container.c:5:     for(int i_l=0; i_l<list_length; i_l++)
	.loc 1 5 5 is_stmt 0 view .LVU6
	testl	%esi, %esi	# list_length
	je	.L2	#,
	leal	-1(%rsi), %eax	#, tmp94
	movq	%rdi, %rbx	# animals_list, ivtmp.8
	movq	%rsp, %rbp	#, tmp104
	salq	$6, %rax	#, tmp95
	leaq	64(%rdi,%rax), %r12	#, _18
.LVL2:
	.p2align 4,,10
	.p2align 3
.L3:
	.loc 1 7 9 is_stmt 1 discriminator 3 view .LVU7
# container.c:7:         animals_list[i_l] = ani_random_animal(); 
	.loc 1 7 29 is_stmt 0 discriminator 3 view .LVU8
	movq	%rbp, %rdi	# tmp104,
	xorl	%eax, %eax	#
	addq	$64, %rbx	#, ivtmp.8
	call	ani_random_animal@PLT	#
.LVL3:
	movdqu	(%rsp), %xmm0	#, tmp109
	movups	%xmm0, -64(%rbx)	# tmp109, *_3
	movdqu	16(%rsp), %xmm1	#, tmp110
	movups	%xmm1, -48(%rbx)	# tmp110, *_3
	movdqu	32(%rsp), %xmm2	#, tmp111
	movups	%xmm2, -32(%rbx)	# tmp111, *_3
	movdqu	48(%rsp), %xmm3	#, tmp112
	movups	%xmm3, -16(%rbx)	# tmp112, *_3
	.loc 1 5 37 is_stmt 1 discriminator 3 view .LVU9
	.loc 1 5 20 discriminator 3 view .LVU10
# container.c:5:     for(int i_l=0; i_l<list_length; i_l++)
	.loc 1 5 5 is_stmt 0 discriminator 3 view .LVU11
	cmpq	%r12, %rbx	# _18, ivtmp.8
	jne	.L3	#,
.L2:
.LBE2:
	.loc 1 10 5 is_stmt 1 view .LVU12
# container.c:11: }
	.loc 1 11 1 is_stmt 0 view .LVU13
	movq	72(%rsp), %rax	# D.2042, tmp108
	xorq	%fs:40, %rax	# MEM[(<address-space-1> long unsigned int *)40B], tmp108
	jne	.L11	#,
	addq	$80, %rsp	#,
	.cfi_remember_state
	.cfi_def_cfa_offset 32
	xorl	%eax, %eax	#
	popq	%rbx	#
	.cfi_def_cfa_offset 24
	popq	%rbp	#
	.cfi_def_cfa_offset 16
	popq	%r12	#
	.cfi_def_cfa_offset 8
	ret	
.L11:
	.cfi_restore_state
	call	__stack_chk_fail@PLT	#
.LVL4:
	.cfi_endproc
.LFE0:
	.size	con_generate_random, .-con_generate_random
.Letext0:
	.file 2 "animal.h"
	.file 3 "/usr/include/x86_64-linux-gnu/bits/types.h"
	.file 4 "/usr/include/x86_64-linux-gnu/bits/stdint-uintn.h"
	.section	.note.GNU-stack,"",@progbits
	.section	.note.gnu.property,"a"
	.align 8
	.long	 1f - 0f
	.long	 4f - 1f
	.long	 5
0:
	.string	 "GNU"
1:
	.align 8
	.long	 0xc0000002
	.long	 3f - 2f
2:
	.long	 0x3
3:
	.align 8
4:
